target datalayout = "e-m:e-p270:32:32-p271:32:32-p272:64:64-i64:64-i128:128-f80:128-n8:16:32:64-S128"
target triple = "x86_64-pc-linux-gnu"

%struct.TGAImage = type { i32, i32, i8, %"class.std::vector" }
%"class.std::vector" = type { %"struct.std::_Vector_base" }
%"struct.std::_Vector_base" = type { %"struct.std::_Vector_base<unsigned char, std::allocator<unsigned char>>::_Vector_impl" }
%"struct.std::_Vector_base<unsigned char, std::allocator<unsigned char>>::_Vector_impl" = type { %"struct.std::_Vector_base<unsigned char, std::allocator<unsigned char>>::_Vector_impl_data" }
%"struct.std::_Vector_base<unsigned char, std::allocator<unsigned char>>::_Vector_impl_data" = type { ptr, ptr, ptr }
%struct.TGAColor = type { [4 x i8], i8 }

; Function Attrs: mustprogress nounwind uwtable
define linkonce_odr dso_local noundef ptr @_ZNKSt6vectorIhSaIhEE11_M_data_ptrIhEEPT_S4_(ptr noundef nonnull align 8 dereferenceable(24) %0, ptr noundef %1) #6 comdat align 2 {
  %3 = alloca ptr, align 8
  %4 = alloca ptr, align 8
  store ptr %0, ptr %3, align 8, !tbaa !24
  store ptr %1, ptr %4, align 8, !tbaa !28
  %5 = load ptr, ptr %4, align 8, !tbaa !28
  ret ptr %5
}

; Function Attrs: mustprogress nounwind uwtable
define linkonce_odr dso_local noundef ptr @_ZNSt6vectorIhSaIhEE4dataEv(ptr noundef nonnull align 8 dereferenceable(24) %0) #6 comdat align 2 {
  %2 = alloca ptr, align 8
  store ptr %0, ptr %2, align 8, !tbaa !24
  %3 = load ptr, ptr %2, align 8
  %4 = getelementptr inbounds nuw %"struct.std::_Vector_base", ptr %3, i32 0, i32 0
  %5 = getelementptr inbounds nuw %"struct.std::_Vector_base<unsigned char, std::allocator<unsigned char>>::_Vector_impl_data", ptr %4, i32 0, i32 0
  %6 = load ptr, ptr %5, align 8, !tbaa !33
  %7 = call noundef ptr @_ZNKSt6vectorIhSaIhEE11_M_data_ptrIhEEPT_S4_(ptr noundef nonnull align 8 dereferenceable(24) %3, ptr noundef %6) #3
  ret ptr %7
}

; Function Attrs: mustprogress nounwind uwtable
define linkonce_odr dso_local noundef i64 @_ZNKSt6vectorIhSaIhEE4sizeEv(ptr noundef nonnull align 8 dereferenceable(24) %0) #6 comdat align 2 {
  %2 = alloca ptr, align 8
  store ptr %0, ptr %2, align 8, !tbaa !24
  %3 = load ptr, ptr %2, align 8
  %4 = getelementptr inbounds nuw %"struct.std::_Vector_base", ptr %3, i32 0, i32 0
  %5 = getelementptr inbounds nuw %"struct.std::_Vector_base<unsigned char, std::allocator<unsigned char>>::_Vector_impl_data", ptr %4, i32 0, i32 1
  %6 = load ptr, ptr %5, align 8, !tbaa !34
  %7 = getelementptr inbounds nuw %"struct.std::_Vector_base", ptr %3, i32 0, i32 0
  %8 = getelementptr inbounds nuw %"struct.std::_Vector_base<unsigned char, std::allocator<unsigned char>>::_Vector_impl_data", ptr %7, i32 0, i32 0
  %9 = load ptr, ptr %8, align 8, !tbaa !33
  %10 = ptrtoint ptr %6 to i64
  %11 = ptrtoint ptr %9 to i64
  %12 = sub i64 %10, %11
  ret i64 %12
}

; Function Attrs: mustprogress nounwind uwtable
define dso_local void @_ZN8TGAImage3setEiiRK8TGAColor(ptr noundef nonnull align 8 dereferenceable(40) %0, i32 noundef %1, i32 noundef %2, ptr noundef nonnull align 1 dereferenceable(5) %3) #6 align 2 {
  %5 = alloca ptr, align 8
  %6 = alloca i32, align 4
  %7 = alloca i32, align 4
  %8 = alloca ptr, align 8
  store ptr %0, ptr %5, align 8, !tbaa !5
  store i32 %1, ptr %6, align 4, !tbaa !10
  store i32 %2, ptr %7, align 4, !tbaa !10
  store ptr %3, ptr %8, align 8, !tbaa !122
  %9 = load ptr, ptr %5, align 8
  %10 = getelementptr inbounds nuw %struct.TGAImage, ptr %9, i32 0, i32 3
  %11 = call noundef i64 @_ZNKSt6vectorIhSaIhEE4sizeEv(ptr noundef nonnull align 8 dereferenceable(24) %10) #3
  %12 = icmp ne i64 %11, 0
  br i1 %12, label %13, label %29

13:                                               ; preds = %4
  %14 = load i32, ptr %6, align 4, !tbaa !10
  %15 = icmp slt i32 %14, 0
  br i1 %15, label %29, label %16

16:                                               ; preds = %13
  %17 = load i32, ptr %7, align 4, !tbaa !10
  %18 = icmp slt i32 %17, 0
  br i1 %18, label %29, label %19

19:                                               ; preds = %16
  %20 = load i32, ptr %6, align 4, !tbaa !10
  %21 = getelementptr inbounds nuw %struct.TGAImage, ptr %9, i32 0, i32 0
  %22 = load i32, ptr %21, align 8, !tbaa !12
  %23 = icmp sge i32 %20, %22
  br i1 %23, label %29, label %24

24:                                               ; preds = %19
  %25 = load i32, ptr %7, align 4, !tbaa !10
  %26 = getelementptr inbounds nuw %struct.TGAImage, ptr %9, i32 0, i32 1
  %27 = load i32, ptr %26, align 4, !tbaa !19
  %28 = icmp sge i32 %25, %27
  br i1 %28, label %29, label %30

29:                                               ; preds = %24, %19, %16, %13, %4
  br label %51

30:                                               ; preds = %24
  %31 = getelementptr inbounds nuw %struct.TGAImage, ptr %9, i32 0, i32 3
  %32 = call noundef ptr @_ZNSt6vectorIhSaIhEE4dataEv(ptr noundef nonnull align 8 dereferenceable(24) %31) #3
  %33 = load i32, ptr %6, align 4, !tbaa !10
  %34 = load i32, ptr %7, align 4, !tbaa !10
  %35 = getelementptr inbounds nuw %struct.TGAImage, ptr %9, i32 0, i32 0
  %36 = load i32, ptr %35, align 8, !tbaa !12
  %37 = mul nsw i32 %34, %36
  %38 = add nsw i32 %33, %37
  %39 = getelementptr inbounds nuw %struct.TGAImage, ptr %9, i32 0, i32 2
  %40 = load i8, ptr %39, align 8, !tbaa !20
  %41 = zext i8 %40 to i32
  %42 = mul nsw i32 %38, %41
  %43 = sext i32 %42 to i64
  %44 = getelementptr inbounds i8, ptr %32, i64 %43
  %45 = load ptr, ptr %8, align 8, !tbaa !122
  %46 = getelementptr inbounds nuw %struct.TGAColor, ptr %45, i32 0, i32 0
  %47 = getelementptr inbounds [4 x i8], ptr %46, i64 0, i64 0
  %48 = getelementptr inbounds nuw %struct.TGAImage, ptr %9, i32 0, i32 2
  %49 = load i8, ptr %48, align 8, !tbaa !20
  %50 = zext i8 %49 to i64
  call void @llvm.memcpy.p0.p0.i64(ptr align 1 %44, ptr align 1 %47, i64 %50, i1 false)
  br label %51

51:                                               ; preds = %30, %29
  ret void
}