; Function Attrs: mustprogress nofree norecurse nosync nounwind willreturn memory(readwrite, inaccessiblemem: none) uwtable
define dso_local void @_ZN8TGAImage3setEiiRK8TGAColor(ptr noundef nonnull readonly align 8 captures(none) dereferenceable(40) %0, i32 noundef %1, i32 noundef %2, ptr noundef nonnull readonly align 1 captures(none) dereferenceable(5) %3) local_unnamed_addr #13 align 2 {
  %5 = getelementptr inbounds nuw i8, ptr %0, i64 16
  %6 = getelementptr inbounds nuw i8, ptr %0, i64 24
  %7 = load ptr, ptr %6, align 8, !tbaa !20
  %8 = load ptr, ptr %5, align 8, !tbaa !18
  %9 = icmp ne ptr %7, %8
  %10 = or i32 %2, %1
  %11 = icmp sgt i32 %10, -1
  %or.cond3.not16 = and i1 %11, %9
  %12 = load i32, ptr %0, align 8
  %.not = icmp slt i32 %1, %12
  %or.cond = select i1 %or.cond3.not16, i1 %.not, i1 false
  %13 = getelementptr inbounds nuw i8, ptr %0, i64 4
  %14 = load i32, ptr %13, align 4
  %.not11 = icmp slt i32 %2, %14
  %or.cond13 = select i1 %or.cond, i1 %.not11, i1 false
  br i1 %or.cond13, label %15, label %25

15:                                               ; preds = %4
  %16 = mul nsw i32 %12, %2
  %17 = add nsw i32 %16, %1
  %18 = getelementptr inbounds nuw i8, ptr %0, i64 8
  %19 = load i8, ptr %18, align 8, !tbaa !17
  %20 = zext i8 %19 to i32
  %21 = mul nsw i32 %17, %20
  %22 = sext i32 %21 to i64
  %23 = getelementptr inbounds i8, ptr %8, i64 %22
  %24 = zext i8 %19 to i64
  tail call void @llvm.memcpy.p0.p0.i64(ptr align 1 %23, ptr nonnull align 1 %3, i64 %24, i1 false)
  br label %25

25:                                               ; preds = %4, %15
  ret void
}